target datalayout = "e-m:e-p270:32:32-p271:32:32-p272:64:64-i64:64-i128:128-f80:128-n8:16:32:64-S128"
target triple = "x86_64-unknown-linux-gnu"

%"class.grpc_core::Timestamp" = type { i64 }
%"class.grpc_core::URI" = type { %"class.std::__cxx11::basic_string", %"class.std::__cxx11::basic_string", %"class.std::__cxx11::basic_string", %"class.std::map", %"class.std::vector", %"class.std::__cxx11::basic_string" }
%"class.std::map" = type { %"class.std::_Rb_tree" }
%"class.std::_Rb_tree" = type { %"struct.std::_Rb_tree<std::basic_string_view<char>, std::pair<const std::basic_string_view<char>, std::basic_string_view<char>>, std::_Select1st<std::pair<const std::basic_string_view<char>, std::basic_string_view<char>>>, std::less<std::basic_string_view<char>>>::_Rb_tree_impl" }
%"struct.std::_Rb_tree<std::basic_string_view<char>, std::pair<const std::basic_string_view<char>, std::basic_string_view<char>>, std::_Select1st<std::pair<const std::basic_string_view<char>, std::basic_string_view<char>>>, std::less<std::basic_string_view<char>>>::_Rb_tree_impl" = type { %"struct.std::_Rb_tree_key_compare", %"struct.std::_Rb_tree_header" }
%"struct.std::_Rb_tree_key_compare" = type { %"struct.std::less" }
%"struct.std::less" = type { i8 }
%"struct.std::_Rb_tree_header" = type { %"struct.std::_Rb_tree_node_base", i64 }
%"struct.std::_Rb_tree_node_base" = type { i32, ptr, ptr, ptr }
%"class.std::vector" = type { %"struct.std::_Vector_base" }
%"struct.std::_Vector_base" = type { %"struct.std::_Vector_base<grpc_core::URI::QueryParam, std::allocator<grpc_core::URI::QueryParam>>::_Vector_impl" }
%"struct.std::_Vector_base<grpc_core::URI::QueryParam, std::allocator<grpc_core::URI::QueryParam>>::_Vector_impl" = type { %"struct.std::_Vector_base<grpc_core::URI::QueryParam, std::allocator<grpc_core::URI::QueryParam>>::_Vector_impl_data" }
%"struct.std::_Vector_base<grpc_core::URI::QueryParam, std::allocator<grpc_core::URI::QueryParam>>::_Vector_impl_data" = type { ptr, ptr, ptr }
%"class.std::__cxx11::basic_string" = type { %"struct.std::__cxx11::basic_string<char>::_Alloc_hider", i64, %union.anon }
%"struct.std::__cxx11::basic_string<char>::_Alloc_hider" = type { ptr }
%union.anon = type { i64, [8 x i8] }
%class.anon.10 = type { ptr, %"class.grpc_core::URI", %"class.grpc_core::Timestamp", ptr, ptr }

; Function Attrs: mustprogress uwtable
define internal void @"_ZZN9grpc_core11HttpRequest4PostENS_3URIEPK17grpc_channel_argsP19grpc_polling_entityPK17grpc_http_requestNS_9TimestampEP12grpc_closureP18grpc_http_responseNS_13RefCountedPtrI24grpc_channel_credentialsEEEN3$_0C2ERKSI_"(ptr noundef nonnull align 8 dereferenceable(232) %this, ptr noundef nonnull align 8 dereferenceable(232) %0) unnamed_addr #4 align 2 {
entry:
  %this.addr = alloca ptr, align 8
  %.addr = alloca ptr, align 8
  store ptr %this, ptr %this.addr, align 8
  store ptr %0, ptr %.addr, align 8
  %this1 = load ptr, ptr %this.addr, align 8
  %1 = getelementptr inbounds %class.anon.10, ptr %this1, i32 0, i32 0
  %2 = load ptr, ptr %.addr, align 8
  %3 = getelementptr inbounds %class.anon.10, ptr %2, i32 0, i32 0
  %4 = load ptr, ptr %3, align 8
  store ptr %4, ptr %1, align 8
  %5 = getelementptr inbounds %class.anon.10, ptr %this1, i32 0, i32 1
  %6 = load ptr, ptr %.addr, align 8
  %7 = getelementptr inbounds %class.anon.10, ptr %6, i32 0, i32 1
  call void @_ZN9grpc_core3URIC1ERKS0_(ptr noundef nonnull align 8 dereferenceable(200) %5, ptr noundef nonnull align 8 dereferenceable(200) %7)
  %8 = getelementptr inbounds %class.anon.10, ptr %this1, i32 0, i32 2
  %9 = load ptr, ptr %.addr, align 8
  %10 = getelementptr inbounds %class.anon.10, ptr %9, i32 0, i32 2
  call void @llvm.memcpy.p0.p0.i64(ptr align 8 %8, ptr align 8 %10, i64 24, i1 false)
  ret void
}

; Function Attrs: mustprogress nounwind uwtable
define internal void @"_ZZN9grpc_core11HttpRequest4PostENS_3URIEPK17grpc_channel_argsP19grpc_polling_entityPK17grpc_http_requestNS_9TimestampEP12grpc_closureP18grpc_http_responseNS_13RefCountedPtrI24grpc_channel_credentialsEEEN3$_0D2Ev"(ptr noundef nonnull align 8 dereferenceable(232) %this) unnamed_addr #5 align 2 {
entry:
  %this.addr = alloca ptr, align 8
  store ptr %this, ptr %this.addr, align 8
  %this1 = load ptr, ptr %this.addr, align 8
  %0 = getelementptr inbounds %class.anon.10, ptr %this1, i32 0, i32 1
  call void @_ZN9grpc_core3URID2Ev(ptr noundef nonnull align 8 dereferenceable(200) %0) #3
  ret void
}

; Function Attrs: mustprogress uwtable
define internal void @"_ZNSt14_Function_base13_Base_managerIZN9grpc_core11HttpRequest4PostENS1_3URIEPK17grpc_channel_argsP19grpc_polling_entityPK17grpc_http_requestNS1_9TimestampEP12grpc_closureP18grpc_http_responseNS1_13RefCountedPtrI24grpc_channel_credentialsEEE3$_0E9_M_createIRKSK_EEvRSt9_Any_dataOT_St17integral_constantIbLb0EE"(ptr noundef nonnull align 8 dereferenceable(16) %__dest, ptr noundef nonnull align 8 dereferenceable(232) %__f) #4 align 2 personality ptr @__gxx_personality_v0 {
entry:
  %__dest.addr = alloca ptr, align 8
  %__f.addr = alloca ptr, align 8
  %exn.slot = alloca ptr, align 8
  %ehselector.slot = alloca i32, align 4
  store ptr %__dest, ptr %__dest.addr, align 8
  store ptr %__f, ptr %__f.addr, align 8
  %call = call noalias noundef nonnull ptr @_Znwm(i64 noundef 232) #14
  %0 = load ptr, ptr %__f.addr, align 8
  invoke void @"_ZZN9grpc_core11HttpRequest4PostENS_3URIEPK17grpc_channel_argsP19grpc_polling_entityPK17grpc_http_requestNS_9TimestampEP12grpc_closureP18grpc_http_responseNS_13RefCountedPtrI24grpc_channel_credentialsEEEN3$_0C2ERKSI_"(ptr noundef nonnull align 8 dereferenceable(232) %call, ptr noundef nonnull align 8 dereferenceable(232) %0)
          to label %invoke.cont unwind label %lpad

invoke.cont:                                      ; preds = %entry
  %1 = load ptr, ptr %__dest.addr, align 8
  %call1 = call noundef nonnull align 8 dereferenceable(8) ptr @"_ZNSt9_Any_data9_M_accessIPZN9grpc_core11HttpRequest4PostENS1_3URIEPK17grpc_channel_argsP19grpc_polling_entityPK17grpc_http_requestNS1_9TimestampEP12grpc_closureP18grpc_http_responseNS1_13RefCountedPtrI24grpc_channel_credentialsEEE3$_0EERT_v"(ptr noundef nonnull align 8 dereferenceable(16) %1) #3
  store ptr %call, ptr %call1, align 8
  ret void

lpad:                                             ; preds = %entry
  %2 = landingpad { ptr, i32 }
          cleanup
  %3 = extractvalue { ptr, i32 } %2, 0
  store ptr %3, ptr %exn.slot, align 8
  %4 = extractvalue { ptr, i32 } %2, 1
  store i32 %4, ptr %ehselector.slot, align 4
  call void @_ZdlPv(ptr noundef %call) #15
  br label %eh.resume

eh.resume:                                        ; preds = %lpad
  %exn = load ptr, ptr %exn.slot, align 8
  %sel = load i32, ptr %ehselector.slot, align 4
  %lpad.val = insertvalue { ptr, i32 } poison, ptr %exn, 0
  %lpad.val2 = insertvalue { ptr, i32 } %lpad.val, i32 %sel, 1
  resume { ptr, i32 } %lpad.val2
}

; Function Attrs: mustprogress nounwind uwtable
define linkonce_odr noundef ptr @_ZNKSt9_Any_data9_M_accessEv(ptr noundef nonnull align 8 dereferenceable(16) %this) #5 comdat align 2 {
entry:
  %this.addr = alloca ptr, align 8
  store ptr %this, ptr %this.addr, align 8
  %this1 = load ptr, ptr %this.addr, align 8
  %arrayidx = getelementptr inbounds [16 x i8], ptr %this1, i64 0, i64 0
  ret ptr %arrayidx
}

; Function Attrs: mustprogress nounwind uwtable
define internal void @"_ZNSt14_Function_base13_Base_managerIZN9grpc_core11HttpRequest4PostENS1_3URIEPK17grpc_channel_argsP19grpc_polling_entityPK17grpc_http_requestNS1_9TimestampEP12grpc_closureP18grpc_http_responseNS1_13RefCountedPtrI24grpc_channel_credentialsEEE3$_0E10_M_destroyERSt9_Any_dataSt17integral_constantIbLb0EE"(ptr noundef nonnull align 8 dereferenceable(16) %__victim) #5 align 2 {
entry:
  %__victim.addr = alloca ptr, align 8
  store ptr %__victim, ptr %__victim.addr, align 8
  %0 = load ptr, ptr %__victim.addr, align 8
  %call = call noundef nonnull align 8 dereferenceable(8) ptr @"_ZNSt9_Any_data9_M_accessIPZN9grpc_core11HttpRequest4PostENS1_3URIEPK17grpc_channel_argsP19grpc_polling_entityPK17grpc_http_requestNS1_9TimestampEP12grpc_closureP18grpc_http_responseNS1_13RefCountedPtrI24grpc_channel_credentialsEEE3$_0EERT_v"(ptr noundef nonnull align 8 dereferenceable(16) %0) #3
  %1 = load ptr, ptr %call, align 8
  %isnull = icmp eq ptr %1, null
  br i1 %isnull, label %delete.end, label %delete.notnull

delete.notnull:                                   ; preds = %entry
  call void @"_ZZN9grpc_core11HttpRequest4PostENS_3URIEPK17grpc_channel_argsP19grpc_polling_entityPK17grpc_http_requestNS_9TimestampEP12grpc_closureP18grpc_http_responseNS_13RefCountedPtrI24grpc_channel_credentialsEEEN3$_0D2Ev"(ptr noundef nonnull align 8 dereferenceable(232) %1) #3
  call void @_ZdlPv(ptr noundef %1) #15
  br label %delete.end

delete.end:                                       ; preds = %delete.notnull, %entry
  ret void
}

; Function Attrs: mustprogress uwtable
define internal void @"_ZNSt14_Function_base13_Base_managerIZN9grpc_core11HttpRequest4PostENS1_3URIEPK17grpc_channel_argsP19grpc_polling_entityPK17grpc_http_requestNS1_9TimestampEP12grpc_closureP18grpc_http_responseNS1_13RefCountedPtrI24grpc_channel_credentialsEEE3$_0E15_M_init_functorIRKSK_EEvRSt9_Any_dataOT_"(ptr noundef nonnull align 8 dereferenceable(16) %__functor, ptr noundef nonnull align 8 dereferenceable(232) %__f) #4 align 2 {
entry:
  %__functor.addr = alloca ptr, align 8
  %__f.addr = alloca ptr, align 8
  store ptr %__functor, ptr %__functor.addr, align 8
  store ptr %__f, ptr %__f.addr, align 8
  %0 = load ptr, ptr %__functor.addr, align 8
  %1 = load ptr, ptr %__f.addr, align 8
  call void @"_ZNSt14_Function_base13_Base_managerIZN9grpc_core11HttpRequest4PostENS1_3URIEPK17grpc_channel_argsP19grpc_polling_entityPK17grpc_http_requestNS1_9TimestampEP12grpc_closureP18grpc_http_responseNS1_13RefCountedPtrI24grpc_channel_credentialsEEE3$_0E9_M_createIRKSK_EEvRSt9_Any_dataOT_St17integral_constantIbLb0EE"(ptr noundef nonnull align 8 dereferenceable(16) %0, ptr noundef nonnull align 8 dereferenceable(232) %1)
  ret void
}

; Function Attrs: mustprogress nounwind uwtable
define internal noundef nonnull align 8 dereferenceable(8) ptr @"_ZNKSt9_Any_data9_M_accessIPZN9grpc_core11HttpRequest4PostENS1_3URIEPK17grpc_channel_argsP19grpc_polling_entityPK17grpc_http_requestNS1_9TimestampEP12grpc_closureP18grpc_http_responseNS1_13RefCountedPtrI24grpc_channel_credentialsEEE3$_0EERKT_v"(ptr noundef nonnull align 8 dereferenceable(16) %this) #5 align 2 {
entry:
  %this.addr = alloca ptr, align 8
  store ptr %this, ptr %this.addr, align 8
  %this1 = load ptr, ptr %this.addr, align 8
  %call = call noundef ptr @_ZNKSt9_Any_data9_M_accessEv(ptr noundef nonnull align 8 dereferenceable(16) %this1) #3
  ret ptr %call
}

; Function Attrs: mustprogress nounwind uwtable
define linkonce_odr noundef ptr @_ZNSt9_Any_data9_M_accessEv(ptr noundef nonnull align 8 dereferenceable(16) %this) #5 comdat align 2 {
entry:
  %this.addr = alloca ptr, align 8
  store ptr %this, ptr %this.addr, align 8
  %this1 = load ptr, ptr %this.addr, align 8
  %arrayidx = getelementptr inbounds [16 x i8], ptr %this1, i64 0, i64 0
  ret ptr %arrayidx
}

; Function Attrs: mustprogress uwtable
define internal noundef zeroext i1 @"_ZNSt14_Function_base13_Base_managerIZN9grpc_core11HttpRequest4PostENS1_3URIEPK17grpc_channel_argsP19grpc_polling_entityPK17grpc_http_requestNS1_9TimestampEP12grpc_closureP18grpc_http_responseNS1_13RefCountedPtrI24grpc_channel_credentialsEEE3$_0E10_M_managerERSt9_Any_dataRKSM_St18_Manager_operation"(ptr noundef nonnull align 8 dereferenceable(16) %__dest, ptr noundef nonnull align 8 dereferenceable(16) %__source, i32 noundef %__op) #4 align 2 {
entry:
  %__dest.addr = alloca ptr, align 8
  %__source.addr = alloca ptr, align 8
  %__op.addr = alloca i32, align 4
  store ptr %__dest, ptr %__dest.addr, align 8
  store ptr %__source, ptr %__source.addr, align 8
  store i32 %__op, ptr %__op.addr, align 4
  %0 = load i32, ptr %__op.addr, align 4
  switch i32 %0, label %sw.epilog [
    i32 0, label %sw.bb
    i32 1, label %sw.bb1
    i32 2, label %sw.bb4
    i32 3, label %sw.bb6
  ]

sw.bb:                                            ; preds = %entry
  %1 = load ptr, ptr %__dest.addr, align 8
  %call = call noundef nonnull align 8 dereferenceable(8) ptr @_ZNSt9_Any_data9_M_accessIPKSt9type_infoEERT_v(ptr noundef nonnull align 8 dereferenceable(16) %1) #3
  store ptr @"_ZTIZN9grpc_core11HttpRequest4PostENS_3URIEPK17grpc_channel_argsP19grpc_polling_entityPK17grpc_http_requestNS_9TimestampEP12grpc_closureP18grpc_http_responseNS_13RefCountedPtrI24grpc_channel_credentialsEEE3$_0", ptr %call, align 8
  br label %sw.epilog

sw.bb1:                                           ; preds = %entry
  %2 = load ptr, ptr %__source.addr, align 8
  %call2 = call noundef ptr @"_ZNSt14_Function_base13_Base_managerIZN9grpc_core11HttpRequest4PostENS1_3URIEPK17grpc_channel_argsP19grpc_polling_entityPK17grpc_http_requestNS1_9TimestampEP12grpc_closureP18grpc_http_responseNS1_13RefCountedPtrI24grpc_channel_credentialsEEE3$_0E14_M_get_pointerERKSt9_Any_data"(ptr noundef nonnull align 8 dereferenceable(16) %2) #3
  %3 = load ptr, ptr %__dest.addr, align 8
  %call3 = call noundef nonnull align 8 dereferenceable(8) ptr @"_ZNSt9_Any_data9_M_accessIPZN9grpc_core11HttpRequest4PostENS1_3URIEPK17grpc_channel_argsP19grpc_polling_entityPK17grpc_http_requestNS1_9TimestampEP12grpc_closureP18grpc_http_responseNS1_13RefCountedPtrI24grpc_channel_credentialsEEE3$_0EERT_v"(ptr noundef nonnull align 8 dereferenceable(16) %3) #3
  store ptr %call2, ptr %call3, align 8
  br label %sw.epilog

sw.bb4:                                           ; preds = %entry
  %4 = load ptr, ptr %__dest.addr, align 8
  %5 = load ptr, ptr %__source.addr, align 8
  %call5 = call noundef ptr @"_ZNSt14_Function_base13_Base_managerIZN9grpc_core11HttpRequest4PostENS1_3URIEPK17grpc_channel_argsP19grpc_polling_entityPK17grpc_http_requestNS1_9TimestampEP12grpc_closureP18grpc_http_responseNS1_13RefCountedPtrI24grpc_channel_credentialsEEE3$_0E14_M_get_pointerERKSt9_Any_data"(ptr noundef nonnull align 8 dereferenceable(16) %5) #3
  call void @"_ZNSt14_Function_base13_Base_managerIZN9grpc_core11HttpRequest4PostENS1_3URIEPK17grpc_channel_argsP19grpc_polling_entityPK17grpc_http_requestNS1_9TimestampEP12grpc_closureP18grpc_http_responseNS1_13RefCountedPtrI24grpc_channel_credentialsEEE3$_0E15_M_init_functorIRKSK_EEvRSt9_Any_dataOT_"(ptr noundef nonnull align 8 dereferenceable(16) %4, ptr noundef nonnull align 8 dereferenceable(232) %call5)
  br label %sw.epilog

sw.bb6:                                           ; preds = %entry
  %6 = load ptr, ptr %__dest.addr, align 8
  call void @"_ZNSt14_Function_base13_Base_managerIZN9grpc_core11HttpRequest4PostENS1_3URIEPK17grpc_channel_argsP19grpc_polling_entityPK17grpc_http_requestNS1_9TimestampEP12grpc_closureP18grpc_http_responseNS1_13RefCountedPtrI24grpc_channel_credentialsEEE3$_0E10_M_destroyERSt9_Any_dataSt17integral_constantIbLb0EE"(ptr noundef nonnull align 8 dereferenceable(16) %6)
  br label %sw.epilog

sw.epilog:                                        ; preds = %sw.bb6, %sw.bb4, %sw.bb1, %sw.bb, %entry
  ret i1 false
}

; Function Attrs: mustprogress nounwind uwtable
define internal noundef nonnull align 8 dereferenceable(8) ptr @"_ZNSt9_Any_data9_M_accessIPZN9grpc_core11HttpRequest4PostENS1_3URIEPK17grpc_channel_argsP19grpc_polling_entityPK17grpc_http_requestNS1_9TimestampEP12grpc_closureP18grpc_http_responseNS1_13RefCountedPtrI24grpc_channel_credentialsEEE3$_0EERT_v"(ptr noundef nonnull align 8 dereferenceable(16) %this) #5 align 2 {
entry:
  %this.addr = alloca ptr, align 8
  store ptr %this, ptr %this.addr, align 8
  %this1 = load ptr, ptr %this.addr, align 8
  %call = call noundef ptr @_ZNSt9_Any_data9_M_accessEv(ptr noundef nonnull align 8 dereferenceable(16) %this1) #3
  ret ptr %call
}

; Function Attrs: mustprogress nounwind uwtable
define internal noundef ptr @"_ZNSt14_Function_base13_Base_managerIZN9grpc_core11HttpRequest4PostENS1_3URIEPK17grpc_channel_argsP19grpc_polling_entityPK17grpc_http_requestNS1_9TimestampEP12grpc_closureP18grpc_http_responseNS1_13RefCountedPtrI24grpc_channel_credentialsEEE3$_0E14_M_get_pointerERKSt9_Any_data"(ptr noundef nonnull align 8 dereferenceable(16) %__source) #5 align 2 {
entry:
  %__source.addr = alloca ptr, align 8
  store ptr %__source, ptr %__source.addr, align 8
  %0 = load ptr, ptr %__source.addr, align 8
  %call = call noundef nonnull align 8 dereferenceable(8) ptr @"_ZNKSt9_Any_data9_M_accessIPZN9grpc_core11HttpRequest4PostENS1_3URIEPK17grpc_channel_argsP19grpc_polling_entityPK17grpc_http_requestNS1_9TimestampEP12grpc_closureP18grpc_http_responseNS1_13RefCountedPtrI24grpc_channel_credentialsEEE3$_0EERKT_v"(ptr noundef nonnull align 8 dereferenceable(16) %0) #3
  %1 = load ptr, ptr %call, align 8
  ret ptr %1
}

; Function Attrs: mustprogress nounwind uwtable
define linkonce_odr noundef nonnull align 8 dereferenceable(8) ptr @_ZNSt9_Any_data9_M_accessIPKSt9type_infoEERT_v(ptr noundef nonnull align 8 dereferenceable(16) %this) #5 comdat align 2 {
entry:
  %this.addr = alloca ptr, align 8
  store ptr %this, ptr %this.addr, align 8
  %this1 = load ptr, ptr %this.addr, align 8
  %call = call noundef ptr @_ZNSt9_Any_data9_M_accessEv(ptr noundef nonnull align 8 dereferenceable(16) %this1) #3
  ret ptr %call
}

; Function Attrs: mustprogress uwtable
define internal noundef zeroext i1 @"_ZNSt17_Function_handlerIFvvEZN9grpc_core11HttpRequest4PostENS1_3URIEPK17grpc_channel_argsP19grpc_polling_entityPK17grpc_http_requestNS1_9TimestampEP12grpc_closureP18grpc_http_responseNS1_13RefCountedPtrI24grpc_channel_credentialsEEE3$_0E10_M_managerERSt9_Any_dataRKSM_St18_Manager_operation"(ptr noundef nonnull align 8 dereferenceable(16) %__dest, ptr noundef nonnull align 8 dereferenceable(16) %__source, i32 noundef %__op) #4 align 2 {
entry:
  %__dest.addr = alloca ptr, align 8
  %__source.addr = alloca ptr, align 8
  %__op.addr = alloca i32, align 4
  store ptr %__dest, ptr %__dest.addr, align 8
  store ptr %__source, ptr %__source.addr, align 8
  store i32 %__op, ptr %__op.addr, align 4
  %0 = load i32, ptr %__op.addr, align 4
  switch i32 %0, label %sw.default [
    i32 0, label %sw.bb
    i32 1, label %sw.bb1
  ]

sw.bb:                                            ; preds = %entry
  %1 = load ptr, ptr %__dest.addr, align 8
  %call = call noundef nonnull align 8 dereferenceable(8) ptr @_ZNSt9_Any_data9_M_accessIPKSt9type_infoEERT_v(ptr noundef nonnull align 8 dereferenceable(16) %1) #3
  store ptr @"_ZTIZN9grpc_core11HttpRequest4PostENS_3URIEPK17grpc_channel_argsP19grpc_polling_entityPK17grpc_http_requestNS_9TimestampEP12grpc_closureP18grpc_http_responseNS_13RefCountedPtrI24grpc_channel_credentialsEEE3$_0", ptr %call, align 8
  br label %sw.epilog

sw.bb1:                                           ; preds = %entry
  %2 = load ptr, ptr %__source.addr, align 8
  %call2 = call noundef ptr @"_ZNSt14_Function_base13_Base_managerIZN9grpc_core11HttpRequest4PostENS1_3URIEPK17grpc_channel_argsP19grpc_polling_entityPK17grpc_http_requestNS1_9TimestampEP12grpc_closureP18grpc_http_responseNS1_13RefCountedPtrI24grpc_channel_credentialsEEE3$_0E14_M_get_pointerERKSt9_Any_data"(ptr noundef nonnull align 8 dereferenceable(16) %2) #3
  %3 = load ptr, ptr %__dest.addr, align 8
  %call3 = call noundef nonnull align 8 dereferenceable(8) ptr @"_ZNSt9_Any_data9_M_accessIPZN9grpc_core11HttpRequest4PostENS1_3URIEPK17grpc_channel_argsP19grpc_polling_entityPK17grpc_http_requestNS1_9TimestampEP12grpc_closureP18grpc_http_responseNS1_13RefCountedPtrI24grpc_channel_credentialsEEE3$_0EERT_v"(ptr noundef nonnull align 8 dereferenceable(16) %3) #3
  store ptr %call2, ptr %call3, align 8
  br label %sw.epilog

sw.default:                                       ; preds = %entry
  %4 = load ptr, ptr %__dest.addr, align 8
  %5 = load ptr, ptr %__source.addr, align 8
  %6 = load i32, ptr %__op.addr, align 4
  %call4 = call noundef zeroext i1 @"_ZNSt14_Function_base13_Base_managerIZN9grpc_core11HttpRequest4PostENS1_3URIEPK17grpc_channel_argsP19grpc_polling_entityPK17grpc_http_requestNS1_9TimestampEP12grpc_closureP18grpc_http_responseNS1_13RefCountedPtrI24grpc_channel_credentialsEEE3$_0E10_M_managerERSt9_Any_dataRKSM_St18_Manager_operation"(ptr noundef nonnull align 8 dereferenceable(16) %4, ptr noundef nonnull align 8 dereferenceable(16) %5, i32 noundef %6)
  br label %sw.epilog

sw.epilog:                                        ; preds = %sw.default, %sw.bb1, %sw.bb
  ret i1 false
}